target datalayout = "e-m:e-p270:32:32-p271:32:32-p272:64:64-i64:64-i128:128-f80:128-n8:16:32:64-S128"
target triple = "x86_64-pc-linux-gnu"

@.str.3 = private unnamed_addr constant [2 x i8] c"\0A\00", align 1
@.str.4 = private unnamed_addr constant [57 x i8] c"    fmcombine [options] module_name gold_cell gate_cell\0A\00", align 1
@.str.5 = private unnamed_addr constant [81 x i8] c"This pass takes two cells, which are instances of the same module, and replaces\0A\00", align 1
@.str.6 = private unnamed_addr constant [73 x i8] c"them with one instance of a special 'combined' module, that effectively\0A\00", align 1
@.str.7 = private unnamed_addr constant [74 x i8] c"contains two copies of the original module, plus some formal properties.\0A\00", align 1
@.str.8 = private unnamed_addr constant [80 x i8] c"This is useful for formal test benches that check what differences in behavior\0A\00", align 1
@.str.9 = private unnamed_addr constant [50 x i8] c"a slight difference in input causes in a module.\0A\00", align 1
@.str.10 = private unnamed_addr constant [13 x i8] c"    -initeq\0A\00", align 1
@.str.11 = private unnamed_addr constant [77 x i8] c"        Insert assumptions that initially all FFs in both circuits have the\0A\00", align 1
@.str.12 = private unnamed_addr constant [30 x i8] c"        same initial values.\0A\00", align 1
@.str.13 = private unnamed_addr constant [12 x i8] c"    -anyeq\0A\00", align 1
@.str.14 = private unnamed_addr constant [51 x i8] c"        Do not duplicate $anyseq/$anyconst cells.\0A\00", align 1
@.str.15 = private unnamed_addr constant [10 x i8] c"    -fwd\0A\00", align 1
@.str.16 = private unnamed_addr constant [67 x i8] c"        Insert forward hint assumptions into the combined module.\0A\00", align 1
@.str.17 = private unnamed_addr constant [10 x i8] c"    -bwd\0A\00", align 1
@.str.18 = private unnamed_addr constant [68 x i8] c"        Insert backward hint assumptions into the combined module.\0A\00", align 1
@.str.19 = private unnamed_addr constant [72 x i8] c"        (Backward hints are logically equivalend to fordward hits, but\0A\00", align 1
@.str.20 = private unnamed_addr constant [78 x i8] c"        some solvers are faster with bwd hints, or even both -bwd and -fwd.)\0A\00", align 1
@.str.21 = private unnamed_addr constant [10 x i8] c"    -nop\0A\00", align 1
@.str.22 = private unnamed_addr constant [65 x i8] c"        Don't insert hint assumptions into the combined module.\0A\00", align 1
@.str.23 = private unnamed_addr constant [76 x i8] c"        (This should not provide any speedup over the original design, but\0A\00", align 1
@.str.24 = private unnamed_addr constant [39 x i8] c"        strangely sometimes it does.)\0A\00", align 1
@.str.25 = private unnamed_addr constant [73 x i8] c"If none of -fwd, -bwd, and -nop is given, then -fwd is used as default.\0A\00", align 1

; Function Attrs: mustprogress uwtable
define internal void @_ZN12_GLOBAL__N_113FmcombinePass4helpEv(ptr noundef nonnull align 8 dereferenceable(104) %0) unnamed_addr #4 align 2 {
  %2 = alloca ptr, align 8
  store ptr %0, ptr %2, align 8
  call void (ptr, ...) @_ZN5Yosys3logEPKcz(ptr noundef @.str.3)
  call void (ptr, ...) @_ZN5Yosys3logEPKcz(ptr noundef @.str.4)
  call void (ptr, ...) @_ZN5Yosys3logEPKcz(ptr noundef @.str.3)
  call void (ptr, ...) @_ZN5Yosys3logEPKcz(ptr noundef @.str.5)
  call void (ptr, ...) @_ZN5Yosys3logEPKcz(ptr noundef @.str.6)
  call void (ptr, ...) @_ZN5Yosys3logEPKcz(ptr noundef @.str.7)
  call void (ptr, ...) @_ZN5Yosys3logEPKcz(ptr noundef @.str.3)
  call void (ptr, ...) @_ZN5Yosys3logEPKcz(ptr noundef @.str.8)
  call void (ptr, ...) @_ZN5Yosys3logEPKcz(ptr noundef @.str.9)
  call void (ptr, ...) @_ZN5Yosys3logEPKcz(ptr noundef @.str.3)
  call void (ptr, ...) @_ZN5Yosys3logEPKcz(ptr noundef @.str.10)
  call void (ptr, ...) @_ZN5Yosys3logEPKcz(ptr noundef @.str.11)
  call void (ptr, ...) @_ZN5Yosys3logEPKcz(ptr noundef @.str.12)
  call void (ptr, ...) @_ZN5Yosys3logEPKcz(ptr noundef @.str.3)
  call void (ptr, ...) @_ZN5Yosys3logEPKcz(ptr noundef @.str.13)
  call void (ptr, ...) @_ZN5Yosys3logEPKcz(ptr noundef @.str.14)
  call void (ptr, ...) @_ZN5Yosys3logEPKcz(ptr noundef @.str.3)
  call void (ptr, ...) @_ZN5Yosys3logEPKcz(ptr noundef @.str.15)
  call void (ptr, ...) @_ZN5Yosys3logEPKcz(ptr noundef @.str.16)
  call void (ptr, ...) @_ZN5Yosys3logEPKcz(ptr noundef @.str.3)
  call void (ptr, ...) @_ZN5Yosys3logEPKcz(ptr noundef @.str.17)
  call void (ptr, ...) @_ZN5Yosys3logEPKcz(ptr noundef @.str.18)
  call void (ptr, ...) @_ZN5Yosys3logEPKcz(ptr noundef @.str.19)
  call void (ptr, ...) @_ZN5Yosys3logEPKcz(ptr noundef @.str.20)
  call void (ptr, ...) @_ZN5Yosys3logEPKcz(ptr noundef @.str.3)
  call void (ptr, ...) @_ZN5Yosys3logEPKcz(ptr noundef @.str.21)
  call void (ptr, ...) @_ZN5Yosys3logEPKcz(ptr noundef @.str.22)
  call void (ptr, ...) @_ZN5Yosys3logEPKcz(ptr noundef @.str.23)
  call void (ptr, ...) @_ZN5Yosys3logEPKcz(ptr noundef @.str.24)
  call void (ptr, ...) @_ZN5Yosys3logEPKcz(ptr noundef @.str.3)
  call void (ptr, ...) @_ZN5Yosys3logEPKcz(ptr noundef @.str.25)
  call void (ptr, ...) @_ZN5Yosys3logEPKcz(ptr noundef @.str.3)
  ret void
}